(lp0
(dp1
S'age'
p2
I40
sS'type'
p3
S'user'
p4
sS'id'
p5
I4
sS'parent'
p6
I1
sS'name'
p7
S'Michael'
p8
sa(dp9
S'age'
p10
S'4'
p11
sS'type'
p12
S'user'
p13
sS'id'
p14
I7
sS'parent'
p15
I1
sS'name'
p16
S'Alexey'
p17
sa(dp18
S'age'
p19
I0
sS'type'
p20
S'group'
p21
sS'id'
p22
I1
sS'parent'
p23
I0
sS'name'
p24
S'Group 1'
p25
sa.